target datalayout = "e-m:e-p270:32:32-p271:32:32-p272:64:64-i64:64-i128:128-f80:128-n8:16:32:64-S128"
target triple = "x86_64-pc-linux-gnu"

; Function Attrs: alwaysinline nounwind uwtable
define internal void @_mm_store_si128(ptr noundef %0, <2 x i64> noundef %1) #3 {
  %3 = alloca ptr, align 8
  %4 = alloca <2 x i64>, align 16
  store ptr %0, ptr %3, align 8, !tbaa !16
  store <2 x i64> %1, ptr %4, align 16, !tbaa !10
  %5 = load <2 x i64>, ptr %4, align 16, !tbaa !10
  %6 = load ptr, ptr %3, align 8, !tbaa !16
  store <2 x i64> %5, ptr %6, align 16, !tbaa !10
  ret void
}

; Function Attrs: alwaysinline nounwind uwtable
define internal <2 x i64> @_mm_sub_epi32(<2 x i64> noundef %0, <2 x i64> noundef %1) #3 {
  %3 = alloca <2 x i64>, align 16
  %4 = alloca <2 x i64>, align 16
  store <2 x i64> %0, ptr %3, align 16, !tbaa !10
  store <2 x i64> %1, ptr %4, align 16, !tbaa !10
  %5 = load <2 x i64>, ptr %3, align 16, !tbaa !10
  %6 = bitcast <2 x i64> %5 to <4 x i32>
  %7 = load <2 x i64>, ptr %4, align 16, !tbaa !10
  %8 = bitcast <2 x i64> %7 to <4 x i32>
  %9 = sub <4 x i32> %6, %8
  %10 = bitcast <4 x i32> %9 to <2 x i64>
  ret <2 x i64> %10
}

; Function Attrs: alwaysinline nounwind uwtable
define internal <2 x i64> @_mm_srai_epi32(<2 x i64> noundef %0, i32 noundef %1) #3 {
  %3 = alloca <2 x i64>, align 16
  %4 = alloca i32, align 4
  store <2 x i64> %0, ptr %3, align 16, !tbaa !10
  store i32 %1, ptr %4, align 4, !tbaa !13
  %5 = load <2 x i64>, ptr %3, align 16, !tbaa !10
  %6 = bitcast <2 x i64> %5 to <4 x i32>
  %7 = load i32, ptr %4, align 4, !tbaa !13
  %8 = call <4 x i32> @llvm.x86.sse2.psrai.d(<4 x i32> %6, i32 %7)
  %9 = bitcast <4 x i32> %8 to <2 x i64>
  ret <2 x i64> %9
}

; Function Attrs: alwaysinline nounwind uwtable
define internal <2 x i64> @_mm_add_epi32(<2 x i64> noundef %0, <2 x i64> noundef %1) #3 {
  %3 = alloca <2 x i64>, align 16
  %4 = alloca <2 x i64>, align 16
  store <2 x i64> %0, ptr %3, align 16, !tbaa !10
  store <2 x i64> %1, ptr %4, align 16, !tbaa !10
  %5 = load <2 x i64>, ptr %3, align 16, !tbaa !10
  %6 = bitcast <2 x i64> %5 to <4 x i32>
  %7 = load <2 x i64>, ptr %4, align 16, !tbaa !10
  %8 = bitcast <2 x i64> %7 to <4 x i32>
  %9 = add <4 x i32> %6, %8
  %10 = bitcast <4 x i32> %9 to <2 x i64>
  ret <2 x i64> %10
}

; Function Attrs: alwaysinline nounwind uwtable
define internal <2 x i64> @_mm_load_si128(ptr noundef %0) #3 {
  %2 = alloca ptr, align 8
  store ptr %0, ptr %2, align 8, !tbaa !16
  %3 = load ptr, ptr %2, align 8, !tbaa !16
  %4 = load <2 x i64>, ptr %3, align 16, !tbaa !10
  ret <2 x i64> %4
}

; Function Attrs: nounwind uwtable
define hidden void @opj_mct_encode(ptr noalias noundef %0, ptr noalias noundef %1, ptr noalias noundef %2, i64 noundef %3) #1 {
  %5 = alloca ptr, align 8
  %6 = alloca ptr, align 8
  %7 = alloca ptr, align 8
  %8 = alloca i64, align 8
  %9 = alloca i64, align 8
  %10 = alloca i64, align 8
  %11 = alloca <2 x i64>, align 16
  %12 = alloca <2 x i64>, align 16
  %13 = alloca <2 x i64>, align 16
  %14 = alloca <2 x i64>, align 16
  %15 = alloca <2 x i64>, align 16
  %16 = alloca <2 x i64>, align 16
  %17 = alloca i32, align 4
  %18 = alloca i32, align 4
  %19 = alloca i32, align 4
  %20 = alloca i32, align 4
  %21 = alloca i32, align 4
  %22 = alloca i32, align 4
  store ptr %0, ptr %5, align 8, !tbaa !3
  store ptr %1, ptr %6, align 8, !tbaa !3
  store ptr %2, ptr %7, align 8, !tbaa !3
  store i64 %3, ptr %8, align 8, !tbaa !8
  call void @llvm.lifetime.start.p0(i64 8, ptr %9) #9
  call void @llvm.lifetime.start.p0(i64 8, ptr %10) #9
  %23 = load i64, ptr %8, align 8, !tbaa !8
  store i64 %23, ptr %10, align 8, !tbaa !8
  store i64 0, ptr %9, align 8, !tbaa !8
  br label %24

24:                                               ; preds = %71, %4
  %25 = load i64, ptr %9, align 8, !tbaa !8
  %26 = load i64, ptr %10, align 8, !tbaa !8
  %27 = and i64 %26, 4294967292
  %28 = icmp ult i64 %25, %27
  br i1 %28, label %29, label %74

29:                                               ; preds = %24
  call void @llvm.lifetime.start.p0(i64 16, ptr %11) #9
  call void @llvm.lifetime.start.p0(i64 16, ptr %12) #9
  call void @llvm.lifetime.start.p0(i64 16, ptr %13) #9
  call void @llvm.lifetime.start.p0(i64 16, ptr %14) #9
  %30 = load ptr, ptr %5, align 8, !tbaa !3
  %31 = load i64, ptr %9, align 8, !tbaa !8
  %32 = getelementptr inbounds nuw i32, ptr %30, i64 %31
  %33 = call <2 x i64> @_mm_load_si128(ptr noundef %32)
  store <2 x i64> %33, ptr %14, align 16, !tbaa !10
  call void @llvm.lifetime.start.p0(i64 16, ptr %15) #9
  %34 = load ptr, ptr %6, align 8, !tbaa !3
  %35 = load i64, ptr %9, align 8, !tbaa !8
  %36 = getelementptr inbounds nuw i32, ptr %34, i64 %35
  %37 = call <2 x i64> @_mm_load_si128(ptr noundef %36)
  store <2 x i64> %37, ptr %15, align 16, !tbaa !10
  call void @llvm.lifetime.start.p0(i64 16, ptr %16) #9
  %38 = load ptr, ptr %7, align 8, !tbaa !3
  %39 = load i64, ptr %9, align 8, !tbaa !8
  %40 = getelementptr inbounds nuw i32, ptr %38, i64 %39
  %41 = call <2 x i64> @_mm_load_si128(ptr noundef %40)
  store <2 x i64> %41, ptr %16, align 16, !tbaa !10
  %42 = load <2 x i64>, ptr %15, align 16, !tbaa !10
  %43 = load <2 x i64>, ptr %15, align 16, !tbaa !10
  %44 = call <2 x i64> @_mm_add_epi32(<2 x i64> noundef %42, <2 x i64> noundef %43)
  store <2 x i64> %44, ptr %11, align 16, !tbaa !10
  %45 = load <2 x i64>, ptr %11, align 16, !tbaa !10
  %46 = load <2 x i64>, ptr %16, align 16, !tbaa !10
  %47 = call <2 x i64> @_mm_add_epi32(<2 x i64> noundef %45, <2 x i64> noundef %46)
  store <2 x i64> %47, ptr %11, align 16, !tbaa !10
  %48 = load <2 x i64>, ptr %11, align 16, !tbaa !10
  %49 = load <2 x i64>, ptr %14, align 16, !tbaa !10
  %50 = call <2 x i64> @_mm_add_epi32(<2 x i64> noundef %48, <2 x i64> noundef %49)
  store <2 x i64> %50, ptr %11, align 16, !tbaa !10
  %51 = load <2 x i64>, ptr %11, align 16, !tbaa !10
  %52 = call <2 x i64> @_mm_srai_epi32(<2 x i64> noundef %51, i32 noundef 2)
  store <2 x i64> %52, ptr %11, align 16, !tbaa !10
  %53 = load <2 x i64>, ptr %16, align 16, !tbaa !10
  %54 = load <2 x i64>, ptr %15, align 16, !tbaa !10
  %55 = call <2 x i64> @_mm_sub_epi32(<2 x i64> noundef %53, <2 x i64> noundef %54)
  store <2 x i64> %55, ptr %12, align 16, !tbaa !10
  %56 = load <2 x i64>, ptr %14, align 16, !tbaa !10
  %57 = load <2 x i64>, ptr %15, align 16, !tbaa !10
  %58 = call <2 x i64> @_mm_sub_epi32(<2 x i64> noundef %56, <2 x i64> noundef %57)
  store <2 x i64> %58, ptr %13, align 16, !tbaa !10
  %59 = load ptr, ptr %5, align 8, !tbaa !3
  %60 = load i64, ptr %9, align 8, !tbaa !8
  %61 = getelementptr inbounds nuw i32, ptr %59, i64 %60
  %62 = load <2 x i64>, ptr %11, align 16, !tbaa !10
  call void @_mm_store_si128(ptr noundef %61, <2 x i64> noundef %62)
  %63 = load ptr, ptr %6, align 8, !tbaa !3
  %64 = load i64, ptr %9, align 8, !tbaa !8
  %65 = getelementptr inbounds nuw i32, ptr %63, i64 %64
  %66 = load <2 x i64>, ptr %12, align 16, !tbaa !10
  call void @_mm_store_si128(ptr noundef %65, <2 x i64> noundef %66)
  %67 = load ptr, ptr %7, align 8, !tbaa !3
  %68 = load i64, ptr %9, align 8, !tbaa !8
  %69 = getelementptr inbounds nuw i32, ptr %67, i64 %68
  %70 = load <2 x i64>, ptr %13, align 16, !tbaa !10
  call void @_mm_store_si128(ptr noundef %69, <2 x i64> noundef %70)
  call void @llvm.lifetime.end.p0(i64 16, ptr %16) #9
  call void @llvm.lifetime.end.p0(i64 16, ptr %15) #9
  call void @llvm.lifetime.end.p0(i64 16, ptr %14) #9
  call void @llvm.lifetime.end.p0(i64 16, ptr %13) #9
  call void @llvm.lifetime.end.p0(i64 16, ptr %12) #9
  call void @llvm.lifetime.end.p0(i64 16, ptr %11) #9
  br label %71

71:                                               ; preds = %29
  %72 = load i64, ptr %9, align 8, !tbaa !8
  %73 = add i64 %72, 4
  store i64 %73, ptr %9, align 8, !tbaa !8
  br label %24, !llvm.loop !11

74:                                               ; preds = %24
  br label %75

75:                                               ; preds = %117, %74
  %76 = load i64, ptr %9, align 8, !tbaa !8
  %77 = load i64, ptr %10, align 8, !tbaa !8
  %78 = icmp ult i64 %76, %77
  br i1 %78, label %79, label %120

79:                                               ; preds = %75
  call void @llvm.lifetime.start.p0(i64 4, ptr %17) #9
  %80 = load ptr, ptr %5, align 8, !tbaa !3
  %81 = load i64, ptr %9, align 8, !tbaa !8
  %82 = getelementptr inbounds nuw i32, ptr %80, i64 %81
  %83 = load i32, ptr %82, align 4, !tbaa !13
  store i32 %83, ptr %17, align 4, !tbaa !13
  call void @llvm.lifetime.start.p0(i64 4, ptr %18) #9
  %84 = load ptr, ptr %6, align 8, !tbaa !3
  %85 = load i64, ptr %9, align 8, !tbaa !8
  %86 = getelementptr inbounds nuw i32, ptr %84, i64 %85
  %87 = load i32, ptr %86, align 4, !tbaa !13
  store i32 %87, ptr %18, align 4, !tbaa !13
  call void @llvm.lifetime.start.p0(i64 4, ptr %19) #9
  %88 = load ptr, ptr %7, align 8, !tbaa !3
  %89 = load i64, ptr %9, align 8, !tbaa !8
  %90 = getelementptr inbounds nuw i32, ptr %88, i64 %89
  %91 = load i32, ptr %90, align 4, !tbaa !13
  store i32 %91, ptr %19, align 4, !tbaa !13
  call void @llvm.lifetime.start.p0(i64 4, ptr %20) #9
  %92 = load i32, ptr %17, align 4, !tbaa !13
  %93 = load i32, ptr %18, align 4, !tbaa !13
  %94 = mul nsw i32 %93, 2
  %95 = add nsw i32 %92, %94
  %96 = load i32, ptr %19, align 4, !tbaa !13
  %97 = add nsw i32 %95, %96
  %98 = ashr i32 %97, 2
  store i32 %98, ptr %20, align 4, !tbaa !13
  call void @llvm.lifetime.start.p0(i64 4, ptr %21) #9
  %99 = load i32, ptr %19, align 4, !tbaa !13
  %100 = load i32, ptr %18, align 4, !tbaa !13
  %101 = sub nsw i32 %99, %100
  store i32 %101, ptr %21, align 4, !tbaa !13
  call void @llvm.lifetime.start.p0(i64 4, ptr %22) #9
  %102 = load i32, ptr %17, align 4, !tbaa !13
  %103 = load i32, ptr %18, align 4, !tbaa !13
  %104 = sub nsw i32 %102, %103
  store i32 %104, ptr %22, align 4, !tbaa !13
  %105 = load i32, ptr %20, align 4, !tbaa !13
  %106 = load ptr, ptr %5, align 8, !tbaa !3
  %107 = load i64, ptr %9, align 8, !tbaa !8
  %108 = getelementptr inbounds nuw i32, ptr %106, i64 %107
  store i32 %105, ptr %108, align 4, !tbaa !13
  %109 = load i32, ptr %21, align 4, !tbaa !13
  %110 = load ptr, ptr %6, align 8, !tbaa !3
  %111 = load i64, ptr %9, align 8, !tbaa !8
  %112 = getelementptr inbounds nuw i32, ptr %110, i64 %111
  store i32 %109, ptr %112, align 4, !tbaa !13
  %113 = load i32, ptr %22, align 4, !tbaa !13
  %114 = load ptr, ptr %7, align 8, !tbaa !3
  %115 = load i64, ptr %9, align 8, !tbaa !8
  %116 = getelementptr inbounds nuw i32, ptr %114, i64 %115
  store i32 %113, ptr %116, align 4, !tbaa !13
  call void @llvm.lifetime.end.p0(i64 4, ptr %22) #9
  call void @llvm.lifetime.end.p0(i64 4, ptr %21) #9
  call void @llvm.lifetime.end.p0(i64 4, ptr %20) #9
  call void @llvm.lifetime.end.p0(i64 4, ptr %19) #9
  call void @llvm.lifetime.end.p0(i64 4, ptr %18) #9
  call void @llvm.lifetime.end.p0(i64 4, ptr %17) #9
  br label %117

117:                                              ; preds = %79
  %118 = load i64, ptr %9, align 8, !tbaa !8
  %119 = add i64 %118, 1
  store i64 %119, ptr %9, align 8, !tbaa !8
  br label %75, !llvm.loop !15

120:                                              ; preds = %75
  call void @llvm.lifetime.end.p0(i64 8, ptr %10) #9
  call void @llvm.lifetime.end.p0(i64 8, ptr %9) #9
  ret void
}