; Function Attrs: nofree norecurse nosync nounwind memory(argmem: readwrite) uwtable
define hidden void @opj_mct_encode(ptr noalias noundef captures(none) %0, ptr noalias noundef captures(none) %1, ptr noalias noundef captures(none) %2, i64 noundef %3) local_unnamed_addr #1 {
  %5 = and i64 %3, 4294967292
  %.not = icmp eq i64 %5, 0
  br i1 %.not, label %.preheader, label %.lr.ph

.preheader:                                       ; preds = %.lr.ph, %4
  %.0.lcssa = phi i64 [ 0, %4 ], [ %19, %.lr.ph ]
  %6 = icmp ult i64 %.0.lcssa, %3
  br i1 %6, label %.lr.ph56, label %._crit_edge

.lr.ph:                                           ; preds = %4, %.lr.ph
  %.054 = phi i64 [ %19, %.lr.ph ], [ 0, %4 ]
  %7 = getelementptr inbounds nuw i32, ptr %0, i64 %.054
  %8 = load <4 x i32>, ptr %7, align 16, !tbaa !3
  %9 = getelementptr inbounds nuw i32, ptr %1, i64 %.054
  %10 = load <4 x i32>, ptr %9, align 16, !tbaa !3
  %11 = getelementptr inbounds nuw i32, ptr %2, i64 %.054
  %12 = load <4 x i32>, ptr %11, align 16, !tbaa !3
  %13 = shl <4 x i32> %10, splat (i32 1)
  %14 = add <4 x i32> %12, %8
  %15 = add <4 x i32> %14, %13
  %16 = ashr <4 x i32> %15, splat (i32 2)
  %17 = sub <4 x i32> %12, %10
  %18 = sub <4 x i32> %8, %10
  store <4 x i32> %16, ptr %7, align 16, !tbaa !3
  store <4 x i32> %17, ptr %9, align 16, !tbaa !3
  store <4 x i32> %18, ptr %11, align 16, !tbaa !3
  %19 = add nuw nsw i64 %.054, 4
  %20 = icmp samesign ult i64 %19, %5
  br i1 %20, label %.lr.ph, label %.preheader, !llvm.loop !6

.lr.ph56:                                         ; preds = %.preheader, %.lr.ph56
  %.155 = phi i64 [ %33, %.lr.ph56 ], [ %.0.lcssa, %.preheader ]
  %21 = getelementptr inbounds nuw i32, ptr %0, i64 %.155
  %22 = load i32, ptr %21, align 4, !tbaa !8
  %23 = getelementptr inbounds nuw i32, ptr %1, i64 %.155
  %24 = load i32, ptr %23, align 4, !tbaa !8
  %25 = getelementptr inbounds nuw i32, ptr %2, i64 %.155
  %26 = load i32, ptr %25, align 4, !tbaa !8
  %27 = shl nsw i32 %24, 1
  %28 = add nsw i32 %27, %22
  %29 = add nsw i32 %28, %26
  %30 = ashr i32 %29, 2
  %31 = sub nsw i32 %26, %24
  %32 = sub nsw i32 %22, %24
  store i32 %30, ptr %21, align 4, !tbaa !8
  store i32 %31, ptr %23, align 4, !tbaa !8
  store i32 %32, ptr %25, align 4, !tbaa !8
  %33 = add nuw i64 %.155, 1
  %exitcond.not = icmp eq i64 %33, %3
  br i1 %exitcond.not, label %._crit_edge, label %.lr.ph56, !llvm.loop !10

._crit_edge:                                      ; preds = %.lr.ph56, %.preheader
  ret void
}